ccopy_reg
_reconstructor
p0
(c__main__
UnigramChunker
p1
c__builtin__
object
p2
Ntp3
Rp4
(dp5
S'tagger'
p6
g0
(cnltk.tag.sequential
UnigramTagger
p7
g2
Ntp8
Rp9
(dp10
S'_taggers'
p11
(lp12
g9
asS'_n'
p13
I1
sS'_context_to_tag'
p14
(dp15
S'VBG'
p16
VO
p17
sS'JJ'
p18
VI-NP
p19
sS'NN'
p20
VI-NP
p21
sS'VBD'
p22
VI-NP
p23
sS'VBN'
p24
VB-NP
p25
sS'CD'
p26
g17
sS'VBP'
p27
g17
sS'PRP'
p28
g17
sS'RB'
p29
g17
sS'IN'
p30
VI-NP
p31
sS'VBZ'
p32
VI-NP
p33
sS'NNS'
p34
VI-NP
p35
ssbsb.